target datalayout = "e-m:e-p270:32:32-p271:32:32-p272:64:64-i64:64-i128:128-f80:128-n8:16:32:64-S128"
target triple = "x86_64-pc-linux-gnu"

%union.pthread_mutex_t = type { %struct.__pthread_mutex_s }
%struct.__pthread_mutex_s = type { i32, i32, i32, i32, i32, i16, i16, %struct.__pthread_internal_list }
%struct.__pthread_internal_list = type { ptr, ptr }
%struct.pmix_tma = type { ptr, ptr, ptr, ptr, ptr, ptr, ptr, ptr }
%struct.pmix_object_t = type { %union.pthread_mutex_t, ptr, i32, %struct.pmix_tma }
%struct.pmix_mca_base_var_t = type { %struct.pmix_object_t, i32, i32, i32, ptr, ptr, ptr, ptr, %struct.pmix_value_array_t, i32, i32, i32, ptr, ptr, ptr, i32, ptr, ptr }
%struct.pmix_value_array_t = type { %struct.pmix_object_t, ptr, i64, i64, i64 }

@.str.91 = private unnamed_addr constant [12 x i8] c"%sSOURCE_%s\00", align 1
@.str.92 = private unnamed_addr constant [5 x i8] c"%s%s\00", align 1

; Function Attrs: nounwind uwtable
define internal i32 @var_get_env(ptr noundef %0, ptr noundef %1, ptr noundef %2, ptr noundef %3) #0 {
  %5 = alloca i32, align 4
  %6 = alloca ptr, align 8
  %7 = alloca ptr, align 8
  %8 = alloca ptr, align 8
  %9 = alloca ptr, align 8
  %10 = alloca ptr, align 8
  %11 = alloca ptr, align 8
  %12 = alloca i32, align 4
  %13 = alloca i32, align 4
  store ptr %0, ptr %6, align 8, !tbaa !3
  store ptr %1, ptr %7, align 8, !tbaa !47
  store ptr %2, ptr %8, align 8, !tbaa !48
  store ptr %3, ptr %9, align 8, !tbaa !48
  call void @llvm.lifetime.start.p0(i64 8, ptr %10) #15
  call void @llvm.lifetime.start.p0(i64 8, ptr %11) #15
  call void @llvm.lifetime.start.p0(i64 4, ptr %12) #15
  %14 = load ptr, ptr %6, align 8, !tbaa !3
  %15 = getelementptr inbounds nuw %struct.pmix_mca_base_var_t, ptr %14, i32 0, i32 7
  %16 = load ptr, ptr %15, align 8, !tbaa !38
  %17 = load ptr, ptr %7, align 8, !tbaa !47
  %18 = call i32 (ptr, ptr, ...) @asprintf(ptr noundef %10, ptr noundef @.str.91, ptr noundef %16, ptr noundef %17) #15
  store i32 %18, ptr %12, align 4, !tbaa !18
  %19 = load i32, ptr %12, align 4, !tbaa !18
  %20 = icmp sgt i32 0, %19
  br i1 %20, label %21, label %22

21:                                               ; preds = %4
  store i32 -1, ptr %5, align 4
  store i32 1, ptr %13, align 4
  br label %47

22:                                               ; preds = %4
  %23 = load ptr, ptr %6, align 8, !tbaa !3
  %24 = getelementptr inbounds nuw %struct.pmix_mca_base_var_t, ptr %23, i32 0, i32 7
  %25 = load ptr, ptr %24, align 8, !tbaa !38
  %26 = load ptr, ptr %7, align 8, !tbaa !47
  %27 = call i32 (ptr, ptr, ...) @asprintf(ptr noundef %11, ptr noundef @.str.92, ptr noundef %25, ptr noundef %26) #15
  store i32 %27, ptr %12, align 4, !tbaa !18
  %28 = load i32, ptr %12, align 4, !tbaa !18
  %29 = icmp sgt i32 0, %28
  br i1 %29, label %30, label %32

30:                                               ; preds = %22
  %31 = load ptr, ptr %10, align 8, !tbaa !47
  call void @free(ptr noundef %31) #15
  store i32 -1, ptr %5, align 4
  store i32 1, ptr %13, align 4
  br label %47

32:                                               ; preds = %22
  %33 = load ptr, ptr %10, align 8, !tbaa !47
  %34 = call ptr @getenv(ptr noundef %33) #15
  %35 = load ptr, ptr %8, align 8, !tbaa !48
  store ptr %34, ptr %35, align 8, !tbaa !47
  %36 = load ptr, ptr %11, align 8, !tbaa !47
  %37 = call ptr @getenv(ptr noundef %36) #15
  %38 = load ptr, ptr %9, align 8, !tbaa !48
  store ptr %37, ptr %38, align 8, !tbaa !47
  %39 = load ptr, ptr %10, align 8, !tbaa !47
  call void @free(ptr noundef %39) #15
  %40 = load ptr, ptr %11, align 8, !tbaa !47
  call void @free(ptr noundef %40) #15
  %41 = load ptr, ptr %9, align 8, !tbaa !48
  %42 = load ptr, ptr %41, align 8, !tbaa !47
  %43 = icmp eq ptr null, %42
  br i1 %43, label %44, label %46

44:                                               ; preds = %32
  %45 = load ptr, ptr %8, align 8, !tbaa !48
  store ptr null, ptr %45, align 8, !tbaa !47
  store i32 -46, ptr %5, align 4
  store i32 1, ptr %13, align 4
  br label %47

46:                                               ; preds = %32
  store i32 0, ptr %5, align 4
  store i32 1, ptr %13, align 4
  br label %47

47:                                               ; preds = %46, %44, %30, %21
  call void @llvm.lifetime.end.p0(i64 4, ptr %12) #15
  call void @llvm.lifetime.end.p0(i64 8, ptr %11) #15
  call void @llvm.lifetime.end.p0(i64 8, ptr %10) #15
  %48 = load i32, ptr %5, align 4
  ret i32 %48
}