; Function Attrs: nounwind uwtable
define internal fastcc range(i32 -46, 1) i32 @var_get_env(ptr noundef readonly captures(none) %0, ptr noundef %1, ptr noundef nonnull writeonly captures(none) %2, ptr noundef nonnull captures(none) %3) unnamed_addr #0 {
  %5 = alloca ptr, align 8
  %6 = alloca ptr, align 8
  call void @llvm.lifetime.start.p0(i64 8, ptr nonnull %5) #25
  call void @llvm.lifetime.start.p0(i64 8, ptr nonnull %6) #25
  %7 = getelementptr inbounds nuw i8, ptr %0, i64 160
  %8 = load ptr, ptr %7, align 8, !tbaa !44
  %9 = call i32 (ptr, ptr, ...) @asprintf(ptr noundef nonnull %5, ptr noundef nonnull @.str.91, ptr noundef %8, ptr noundef %1) #25
  %10 = icmp slt i32 %9, 0
  br i1 %10, label %25, label %11

11:                                               ; preds = %4
  %12 = load ptr, ptr %7, align 8, !tbaa !44
  %13 = call i32 (ptr, ptr, ...) @asprintf(ptr noundef nonnull %6, ptr noundef nonnull @.str.92, ptr noundef %12, ptr noundef %1) #25
  %14 = icmp slt i32 %13, 0
  %15 = load ptr, ptr %5, align 8, !tbaa !51
  br i1 %14, label %16, label %17

16:                                               ; preds = %11
  call void @free(ptr noundef %15) #25
  br label %25

17:                                               ; preds = %11
  %18 = call ptr @getenv(ptr noundef %15) #25
  store ptr %18, ptr %2, align 8, !tbaa !51
  %19 = load ptr, ptr %6, align 8, !tbaa !51
  %20 = call ptr @getenv(ptr noundef %19) #25
  store ptr %20, ptr %3, align 8, !tbaa !51
  call void @free(ptr noundef %15) #25
  %21 = load ptr, ptr %6, align 8, !tbaa !51
  call void @free(ptr noundef %21) #25
  %22 = load ptr, ptr %3, align 8, !tbaa !51
  %23 = icmp eq ptr %22, null
  br i1 %23, label %24, label %25

24:                                               ; preds = %17
  store ptr null, ptr %2, align 8, !tbaa !51
  br label %25

25:                                               ; preds = %17, %4, %24, %16
  %.0 = phi i32 [ -1, %16 ], [ -46, %24 ], [ -1, %4 ], [ 0, %17 ]
  call void @llvm.lifetime.end.p0(i64 8, ptr nonnull %6) #25
  call void @llvm.lifetime.end.p0(i64 8, ptr nonnull %5) #25
  ret i32 %.0
}